target datalayout = "e-m:e-p270:32:32-p271:32:32-p272:64:64-i64:64-i128:128-f80:128-n8:16:32:64-S128"
target triple = "x86_64-pc-linux-gnu"

%struct.mbedtls_ecp_keypair = type { %struct.mbedtls_ecp_group, %struct.mbedtls_mpi, %struct.mbedtls_ecp_point }
%struct.mbedtls_ecp_group = type { i32, %struct.mbedtls_mpi, %struct.mbedtls_mpi, %struct.mbedtls_mpi, %struct.mbedtls_ecp_point, %struct.mbedtls_mpi, i64, i64, i32, ptr, ptr, ptr, ptr, ptr, i64 }
%struct.mbedtls_mpi = type { ptr, i16, i16 }
%struct.mbedtls_ecp_point = type { %struct.mbedtls_mpi, %struct.mbedtls_mpi, %struct.mbedtls_mpi }

; Function Attrs: nounwind uwtable
define hidden i32 @mbedtls_psa_ecp_export_key(i16 noundef zeroext %0, ptr noundef %1, ptr noundef %2, i64 noundef %3, ptr noundef %4) #0 {
  %6 = alloca i32, align 4
  %7 = alloca i16, align 2
  %8 = alloca ptr, align 8
  %9 = alloca ptr, align 8
  %10 = alloca i64, align 8
  %11 = alloca ptr, align 8
  %12 = alloca i32, align 4
  %13 = alloca i32, align 4
  store i16 %0, ptr %7, align 2, !tbaa !3
  store ptr %1, ptr %8, align 8, !tbaa !17
  store ptr %2, ptr %9, align 8, !tbaa !9
  store i64 %3, ptr %10, align 8, !tbaa !7
  store ptr %4, ptr %11, align 8, !tbaa !27
  call void @llvm.lifetime.start.p0(i64 4, ptr %12) #7
  %14 = load i16, ptr %7, align 2, !tbaa !3
  %15 = zext i16 %14 to i32
  %16 = and i32 %15, 28672
  %17 = icmp eq i32 %16, 16384
  br i1 %17, label %18, label %57

18:                                               ; preds = %5
  %19 = load ptr, ptr %8, align 8, !tbaa !17
  %20 = getelementptr inbounds nuw %struct.mbedtls_ecp_keypair, ptr %19, i32 0, i32 2
  %21 = call i32 @mbedtls_ecp_is_zero(ptr noundef %20)
  %22 = icmp ne i32 %21, 0
  br i1 %22, label %23, label %40

23:                                               ; preds = %18
  %24 = load ptr, ptr %8, align 8, !tbaa !17
  %25 = getelementptr inbounds nuw %struct.mbedtls_ecp_keypair, ptr %24, i32 0, i32 0
  %26 = load ptr, ptr %8, align 8, !tbaa !17
  %27 = getelementptr inbounds nuw %struct.mbedtls_ecp_keypair, ptr %26, i32 0, i32 2
  %28 = load ptr, ptr %8, align 8, !tbaa !17
  %29 = getelementptr inbounds nuw %struct.mbedtls_ecp_keypair, ptr %28, i32 0, i32 1
  %30 = load ptr, ptr %8, align 8, !tbaa !17
  %31 = getelementptr inbounds nuw %struct.mbedtls_ecp_keypair, ptr %30, i32 0, i32 0
  %32 = getelementptr inbounds nuw %struct.mbedtls_ecp_group, ptr %31, i32 0, i32 4
  %33 = call i32 @mbedtls_ecp_mul(ptr noundef %25, ptr noundef %27, ptr noundef %29, ptr noundef %32, ptr noundef @mbedtls_psa_get_random, ptr noundef null)
  %34 = call i32 @mbedtls_to_psa_error(i32 noundef %33)
  store i32 %34, ptr %12, align 4, !tbaa !15
  %35 = load i32, ptr %12, align 4, !tbaa !15
  %36 = icmp ne i32 %35, 0
  br i1 %36, label %37, label %39

37:                                               ; preds = %23
  %38 = load i32, ptr %12, align 4, !tbaa !15
  store i32 %38, ptr %6, align 4
  store i32 1, ptr %13, align 4
  br label %65

39:                                               ; preds = %23
  br label %40

40:                                               ; preds = %39, %18
  %41 = load ptr, ptr %8, align 8, !tbaa !17
  %42 = getelementptr inbounds nuw %struct.mbedtls_ecp_keypair, ptr %41, i32 0, i32 0
  %43 = load ptr, ptr %8, align 8, !tbaa !17
  %44 = getelementptr inbounds nuw %struct.mbedtls_ecp_keypair, ptr %43, i32 0, i32 2
  %45 = load ptr, ptr %11, align 8, !tbaa !27
  %46 = load ptr, ptr %9, align 8, !tbaa !9
  %47 = load i64, ptr %10, align 8, !tbaa !7
  %48 = call i32 @mbedtls_ecp_point_write_binary(ptr noundef %42, ptr noundef %44, i32 noundef 0, ptr noundef %45, ptr noundef %46, i64 noundef %47)
  %49 = call i32 @mbedtls_to_psa_error(i32 noundef %48)
  store i32 %49, ptr %12, align 4, !tbaa !15
  %50 = load i32, ptr %12, align 4, !tbaa !15
  %51 = icmp ne i32 %50, 0
  br i1 %51, label %52, label %55

52:                                               ; preds = %40
  %53 = load ptr, ptr %9, align 8, !tbaa !9
  %54 = load i64, ptr %10, align 8, !tbaa !7
  call void @llvm.memset.p0.i64(ptr align 1 %53, i8 0, i64 %54, i1 false)
  br label %55

55:                                               ; preds = %52, %40
  %56 = load i32, ptr %12, align 4, !tbaa !15
  store i32 %56, ptr %6, align 4
  store i32 1, ptr %13, align 4
  br label %65

57:                                               ; preds = %5
  %58 = load ptr, ptr %8, align 8, !tbaa !17
  %59 = load ptr, ptr %11, align 8, !tbaa !27
  %60 = load ptr, ptr %9, align 8, !tbaa !9
  %61 = load i64, ptr %10, align 8, !tbaa !7
  %62 = call i32 @mbedtls_ecp_write_key_ext(ptr noundef %58, ptr noundef %59, ptr noundef %60, i64 noundef %61)
  %63 = call i32 @mbedtls_to_psa_error(i32 noundef %62)
  store i32 %63, ptr %12, align 4, !tbaa !15
  %64 = load i32, ptr %12, align 4, !tbaa !15
  store i32 %64, ptr %6, align 4
  store i32 1, ptr %13, align 4
  br label %65

65:                                               ; preds = %57, %55, %37
  call void @llvm.lifetime.end.p0(i64 4, ptr %12) #7
  %66 = load i32, ptr %6, align 4
  ret i32 %66
}