; Function Attrs: nounwind uwtable
define hidden i32 @mbedtls_psa_ecp_export_key(i16 noundef zeroext %0, ptr noundef %1, ptr noundef %2, i64 noundef %3, ptr noundef %4) local_unnamed_addr #0 {
  %6 = and i16 %0, 28672
  %7 = icmp eq i16 %6, 16384
  br i1 %7, label %8, label %20

8:                                                ; preds = %5
  %9 = getelementptr inbounds nuw i8, ptr %1, i64 208
  %10 = tail call i32 @mbedtls_ecp_is_zero(ptr noundef nonnull %9) #7
  %.not = icmp eq i32 %10, 0
  br i1 %.not, label %16, label %11

11:                                               ; preds = %8
  %12 = getelementptr inbounds nuw i8, ptr %1, i64 192
  %13 = getelementptr inbounds nuw i8, ptr %1, i64 56
  %14 = tail call i32 @mbedtls_ecp_mul(ptr noundef nonnull %1, ptr noundef nonnull %9, ptr noundef nonnull %12, ptr noundef nonnull %13, ptr noundef nonnull @mbedtls_psa_get_random, ptr noundef null) #7
  %15 = tail call i32 @mbedtls_to_psa_error(i32 noundef %14) #7
  %.not23 = icmp eq i32 %15, 0
  br i1 %.not23, label %16, label %23

16:                                               ; preds = %11, %8
  %17 = tail call i32 @mbedtls_ecp_point_write_binary(ptr noundef nonnull %1, ptr noundef nonnull %9, i32 noundef 0, ptr noundef %4, ptr noundef %2, i64 noundef %3) #7
  %18 = tail call i32 @mbedtls_to_psa_error(i32 noundef %17) #7
  %.not24 = icmp eq i32 %18, 0
  br i1 %.not24, label %23, label %19

19:                                               ; preds = %16
  tail call void @llvm.memset.p0.i64(ptr align 1 %2, i8 0, i64 %3, i1 false)
  br label %23

20:                                               ; preds = %5
  %21 = tail call i32 @mbedtls_ecp_write_key_ext(ptr noundef %1, ptr noundef %4, ptr noundef %2, i64 noundef %3) #7
  %22 = tail call i32 @mbedtls_to_psa_error(i32 noundef %21) #7
  br label %23

23:                                               ; preds = %16, %19, %11, %20
  %.0 = phi i32 [ %22, %20 ], [ %15, %11 ], [ %18, %19 ], [ 0, %16 ]
  ret i32 %.0
}